; Function Attrs: nounwind uwtable
define ptr @l_List_mapTR_loop___at_Lean_Parser_addLeadingParser___spec__1(ptr noundef %0, ptr noundef %1) local_unnamed_addr #1 {
  br label %3

3:                                                ; preds = %.backedge, %2
  %.029 = phi ptr [ %1, %2 ], [ %.029.be, %.backedge ]
  %.0 = phi ptr [ %0, %2 ], [ %20, %.backedge ]
  %4 = ptrtoint ptr %.0 to i64
  %5 = and i64 %4, 1
  %.not.i32 = icmp eq i64 %5, 0
  br i1 %.not.i32, label %9, label %6

6:                                                ; preds = %3
  %7 = lshr i64 %4, 1
  %8 = trunc i64 %7 to i32
  br label %lean_obj_tag.exit

9:                                                ; preds = %3
  %10 = getelementptr i8, ptr %.0, i64 4
  %.val.i = load i32, ptr %10, align 4
  %11 = lshr i32 %.val.i, 24
  br label %lean_obj_tag.exit

lean_obj_tag.exit:                                ; preds = %6, %9
  %.0.i = phi i32 [ %8, %6 ], [ %11, %9 ]
  %12 = icmp eq i32 %.0.i, 0
  br i1 %12, label %13, label %15

13:                                               ; preds = %lean_obj_tag.exit
  %14 = tail call ptr @l_List_reverse___rarg(ptr noundef %.029) #6
  ret ptr %14

15:                                               ; preds = %lean_obj_tag.exit
  %.0.val = load i32, ptr %.0, align 4, !tbaa !4
  %16 = icmp eq i32 %.0.val, 1
  %17 = getelementptr inbounds nuw i8, ptr %.0, i64 8
  %18 = load ptr, ptr %17, align 8, !tbaa !9
  %19 = getelementptr inbounds nuw i8, ptr %.0, i64 16
  %20 = load ptr, ptr %19, align 8, !tbaa !9
  br i1 %16, label %21, label %23

21:                                               ; preds = %15
  %22 = tail call ptr @l_Lean_Name_str___override(ptr noundef nonnull inttoptr (i64 1 to ptr), ptr noundef %18) #6
  store ptr %.029, ptr %19, align 8, !tbaa !9
  store ptr %22, ptr %17, align 8, !tbaa !9
  br label %.backedge

23:                                               ; preds = %15
  %24 = ptrtoint ptr %20 to i64
  %25 = and i64 %24, 1
  %.not = icmp eq i64 %25, 0
  br i1 %.not, label %26, label %lean_inc.exit31

26:                                               ; preds = %23
  %.val.i33 = load i32, ptr %20, align 4, !tbaa !4
  %27 = icmp sgt i32 %.val.i33, 0
  br i1 %27, label %28, label %30, !prof !11

28:                                               ; preds = %26
  %29 = add nuw i32 %.val.i33, 1
  store i32 %29, ptr %20, align 4, !tbaa !4
  br label %lean_inc.exit31

30:                                               ; preds = %26
  %.not.i34 = icmp eq i32 %.val.i33, 0
  br i1 %.not.i34, label %lean_inc.exit31, label %31

31:                                               ; preds = %30
  tail call void @lean_inc_ref_cold(ptr noundef nonnull %20) #6
  br label %lean_inc.exit31

lean_inc.exit31:                                  ; preds = %31, %30, %28, %23
  %32 = ptrtoint ptr %18 to i64
  %33 = and i64 %32, 1
  %.not38 = icmp eq i64 %33, 0
  br i1 %.not38, label %34, label %lean_inc.exit

34:                                               ; preds = %lean_inc.exit31
  %.val.i35 = load i32, ptr %18, align 4, !tbaa !4
  %35 = icmp sgt i32 %.val.i35, 0
  br i1 %35, label %36, label %38, !prof !11

36:                                               ; preds = %34
  %37 = add nuw i32 %.val.i35, 1
  store i32 %37, ptr %18, align 4, !tbaa !4
  br label %lean_inc.exit

38:                                               ; preds = %34
  %.not.i36 = icmp eq i32 %.val.i35, 0
  br i1 %.not.i36, label %lean_inc.exit, label %39

39:                                               ; preds = %38
  tail call void @lean_inc_ref_cold(ptr noundef nonnull %18) #6
  br label %lean_inc.exit

lean_inc.exit:                                    ; preds = %39, %38, %36, %lean_inc.exit31
  br i1 %.not.i32, label %40, label %lean_dec.exit

40:                                               ; preds = %lean_inc.exit
  %41 = load i32, ptr %.0, align 4, !tbaa !4
  %42 = icmp sgt i32 %41, 1
  br i1 %42, label %43, label %45, !prof !11

43:                                               ; preds = %40
  %44 = add nsw i32 %41, -1
  store i32 %44, ptr %.0, align 4, !tbaa !4
  br label %lean_dec.exit

45:                                               ; preds = %40
  %.not.i = icmp eq i32 %41, 0
  br i1 %.not.i, label %lean_dec.exit, label %46

46:                                               ; preds = %45
  tail call void @lean_dec_ref_cold(ptr noundef nonnull %.0) #6
  br label %lean_dec.exit

lean_dec.exit:                                    ; preds = %46, %45, %43, %lean_inc.exit
  %47 = tail call ptr @l_Lean_Name_str___override(ptr noundef nonnull inttoptr (i64 1 to ptr), ptr noundef %18) #6
  tail call void @lean_inc_heartbeat() #6
  %48 = tail call noalias ptr @mi_malloc_small(i64 noundef 24) #6
  %49 = icmp eq ptr %48, null
  br i1 %49, label %50, label %lean_alloc_ctor.exit

50:                                               ; preds = %lean_dec.exit
  tail call void @lean_internal_panic_out_of_memory() #7
  unreachable

lean_alloc_ctor.exit:                             ; preds = %lean_dec.exit
  %51 = getelementptr inbounds nuw i8, ptr %48, i64 4
  store i32 1, ptr %48, align 4, !tbaa !4
  store i32 16908312, ptr %51, align 4
  %52 = getelementptr inbounds nuw i8, ptr %48, i64 8
  store ptr %47, ptr %52, align 8, !tbaa !9
  %53 = getelementptr inbounds nuw i8, ptr %48, i64 16
  store ptr %.029, ptr %53, align 8, !tbaa !9
  br label %.backedge

.backedge:                                        ; preds = %lean_alloc_ctor.exit, %21
  %.029.be = phi ptr [ %.0, %21 ], [ %48, %lean_alloc_ctor.exit ]
  br label %3
}